OCSP Response Data:
    OCSP Response Status: successful (0x0)
    Response Type: Basic OCSP Response
    Version: 1 (0x0)
    Responder Id: C = US, ST = California, L = San Francisco, O = Lyft, OU = Lyft Engineering, CN = ca
    Produced At: Nov  4 10:01:59 2024 GMT
    Responses:
    Certificate ID:
      Hash Algorithm: sha1
      Issuer Name Hash: 16C50680A809B68F302789AB234F8F4B30B0E06C
      Issuer Key Hash: 8E8DD1F1996584F6D82EDD8A53BB12ECE913645E
      Serial Number: 1000
    Cert Status: good
    This Update: Nov  4 10:01:59 2024 GMT
    Next Update: Nov  4 10:01:59 2026 GMT

    Response Extensions:
        OCSP Nonce: 
            04105DDAD4CA1E848C356EA575668A468613
    Signature Algorithm: sha256WithRSAEncryption
         1b:45:d9:9a:ed:a9:c8:8e:12:57:31:14:d0:0c:93:25:bd:7c:
         ba:c7:b7:47:62:33:4c:06:f0:51:85:41:92:f0:0d:d6:bf:ab:
         f8:c6:d5:c9:4b:9e:54:bb:df:df:98:72:c4:3a:bd:5b:aa:fc:
         06:b3:cd:fa:19:24:ca:2d:3b:6b:77:c6:e9:7d:36:b5:38:1e:
         1f:37:8b:7d:be:dd:bb:4c:50:38:40:72:62:ac:8d:7e:9a:1e:
         52:bb:81:38:f1:3c:6e:b1:18:1c:1d:f3:f6:1f:f9:a7:59:dc:
         5e:c6:aa:fb:9e:73:69:e5:b6:b4:6b:55:45:ec:b7:09:88:f3:
         f7:79:3d:11:a4:57:77:ef:7b:e6:4e:c0:c4:b3:d3:45:15:a0:
         cf:6b:cb:79:4e:c9:86:aa:80:09:8b:d4:f9:57:a1:e9:6c:f6:
         0b:75:d8:ba:7a:bf:18:d5:8e:28:b3:bd:c3:db:95:05:40:f7:
         82:42:02:0f:50:bd:f2:9c:62:65:1e:d0:78:f7:e9:49:e4:d5:
         51:a0:f1:28:70:ac:f9:64:53:58:f9:4b:61:5d:88:25:ac:d5:
         18:6a:83:f6:a5:dd:58:59:ae:89:2a:51:52:77:81:7a:db:35:
         ae:05:54:88:0e:ab:b2:af:45:f0:6c:53:b8:8d:9c:cd:3d:b3:
         ec:ec:60:56
Certificate:
    Data:
        Version: 3 (0x2)
        Serial Number:
            58:40:d5:99:56:12:85:7c:d1:cd:24:71:8f:c7:ca:51:c7:e5:63:b7
        Signature Algorithm: sha256WithRSAEncryption
        Issuer: C=US, ST=California, L=San Francisco, O=Lyft, OU=Lyft Engineering, CN=ca
        Validity
            Not Before: Nov  4 10:01:58 2024 GMT
            Not After : Nov  4 10:01:58 2026 GMT
        Subject: C=US, ST=California, L=San Francisco, O=Lyft, OU=Lyft Engineering, CN=ca
        Subject Public Key Info:
            Public Key Algorithm: rsaEncryption
                RSA Public-Key: (2048 bit)
                Modulus:
                    00:d7:35:e5:71:f6:80:05:38:f4:d0:d5:3b:c1:a6:
                    a9:ec:53:59:b0:4b:d7:2c:62:4e:36:81:89:fa:3e:
                    e3:c1:df:4b:d9:2d:80:1a:1c:e4:91:15:2b:f7:10:
                    b2:04:3c:2b:ea:09:e1:2c:7e:7d:1b:00:e9:92:78:
                    78:5a:1d:43:5b:a8:90:a2:37:a2:34:dd:32:30:b6:
                    61:cb:03:c5:d1:15:c8:5d:01:25:35:5a:b2:d7:a4:
                    e7:9b:e0:be:02:08:6e:3c:5b:1b:07:ef:5f:1b:1a:
                    6b:ac:af:39:6a:39:58:ca:9b:bd:b7:b1:31:02:9e:
                    a5:ee:ec:86:a4:1e:bb:a1:58:b4:24:11:27:34:3c:
                    24:ec:d9:b0:e9:ab:8d:44:0e:28:39:99:c0:c4:9e:
                    93:a8:3b:53:3f:32:9d:f2:57:dd:fe:c8:83:f9:23:
                    df:58:61:8b:4a:10:c2:38:ef:bc:b7:f7:9d:34:b3:
                    4b:90:e1:ab:b2:0d:53:99:04:9d:b5:ba:f4:4c:6e:
                    74:5c:01:87:7a:37:ed:dc:55:c5:c0:e9:0d:d6:91:
                    9c:a3:c6:b8:c8:ae:f9:51:c1:bc:be:85:19:17:58:
                    17:bc:57:f8:65:6b:28:a4:6d:a3:58:71:4e:c3:a1:
                    6b:e1:f4:77:5f:fa:f1:50:0f:c9:25:4f:0a:4b:20:
                    b5:b9
                Exponent: 65537 (0x10001)
        X509v3 extensions:
            X509v3 Subject Key Identifier: 
                8E:8D:D1:F1:99:65:84:F6:D8:2E:DD:8A:53:BB:12:EC:E9:13:64:5E
            X509v3 Authority Key Identifier: 
                keyid:8E:8D:D1:F1:99:65:84:F6:D8:2E:DD:8A:53:BB:12:EC:E9:13:64:5E

            X509v3 Basic Constraints: critical
                CA:TRUE
            X509v3 Key Usage: critical
                Digital Signature, Certificate Sign, CRL Sign
    Signature Algorithm: sha256WithRSAEncryption
         61:34:02:18:8c:81:82:21:c5:89:49:44:58:9d:a4:73:51:6f:
         b8:bd:0d:30:53:f1:bc:46:49:d6:18:85:0a:66:1a:03:e0:63:
         e5:d7:03:4a:17:7c:66:f4:6f:86:c3:96:e0:8c:6f:37:4e:b0:
         9d:a5:56:6c:bf:e0:51:09:cc:20:49:46:de:c4:66:b4:53:a8:
         64:05:a9:57:eb:38:28:03:4a:20:f6:c1:08:33:00:88:da:15:
         43:c1:b2:70:67:8c:38:4a:77:3b:b9:ef:ee:67:2f:46:49:bc:
         2c:dc:90:94:07:44:4c:9b:8d:e8:ce:0d:3d:ae:ba:84:98:55:
         02:5c:bd:ac:d4:9a:9f:9d:5c:92:62:b4:ce:50:e9:46:27:7e:
         1d:bb:aa:86:e9:c5:19:54:aa:d0:55:88:0f:9b:12:d3:1b:bb:
         6d:d1:2b:de:a8:fc:68:91:88:84:5f:69:1b:4c:0a:6b:81:3b:
         4b:7c:83:28:bf:93:a0:0c:2c:70:19:98:8f:2e:80:06:91:88:
         d0:0d:62:a1:2b:91:82:e3:0e:94:ba:70:05:46:85:7f:dd:fb:
         a7:d4:91:6f:1c:10:f7:a4:a9:19:cb:b8:40:7a:73:86:49:7c:
         96:c0:85:39:43:4d:08:2c:9d:3b:10:e5:48:24:3c:4e:42:c0:
         22:7d:fe:cc
-----BEGIN CERTIFICATE-----
MIID0zCCArugAwIBAgIUWEDVmVYShXzRzSRxj8fKUcflY7cwDQYJKoZIhvcNAQEL
BQAwcTELMAkGA1UEBhMCVVMxEzARBgNVBAgMCkNhbGlmb3JuaWExFjAUBgNVBAcM
DVNhbiBGcmFuY2lzY28xDTALBgNVBAoMBEx5ZnQxGTAXBgNVBAsMEEx5ZnQgRW5n
aW5lZXJpbmcxCzAJBgNVBAMMAmNhMB4XDTI0MTEwNDEwMDE1OFoXDTI2MTEwNDEw
MDE1OFowcTELMAkGA1UEBhMCVVMxEzARBgNVBAgMCkNhbGlmb3JuaWExFjAUBgNV
BAcMDVNhbiBGcmFuY2lzY28xDTALBgNVBAoMBEx5ZnQxGTAXBgNVBAsMEEx5ZnQg
RW5naW5lZXJpbmcxCzAJBgNVBAMMAmNhMIIBIjANBgkqhkiG9w0BAQEFAAOCAQ8A
MIIBCgKCAQEA1zXlcfaABTj00NU7waap7FNZsEvXLGJONoGJ+j7jwd9L2S2AGhzk
kRUr9xCyBDwr6gnhLH59GwDpknh4Wh1DW6iQojeiNN0yMLZhywPF0RXIXQElNVqy
16Tnm+C+AghuPFsbB+9fGxprrK85ajlYypu9t7ExAp6l7uyGpB67oVi0JBEnNDwk
7Nmw6auNRA4oOZnAxJ6TqDtTPzKd8lfd/siD+SPfWGGLShDCOO+8t/edNLNLkOGr
sg1TmQSdtbr0TG50XAGHejft3FXFwOkN1pGco8a4yK75UcG8voUZF1gXvFf4ZWso
pG2jWHFOw6Fr4fR3X/rxUA/JJU8KSyC1uQIDAQABo2MwYTAdBgNVHQ4EFgQUjo3R
8ZllhPbYLt2KU7sS7OkTZF4wHwYDVR0jBBgwFoAUjo3R8ZllhPbYLt2KU7sS7OkT
ZF4wDwYDVR0TAQH/BAUwAwEB/zAOBgNVHQ8BAf8EBAMCAYYwDQYJKoZIhvcNAQEL
BQADggEBAGE0AhiMgYIhxYlJRFidpHNRb7i9DTBT8bxGSdYYhQpmGgPgY+XXA0oX
fGb0b4bDluCMbzdOsJ2lVmy/4FEJzCBJRt7EZrRTqGQFqVfrOCgDSiD2wQgzAIja
FUPBsnBnjDhKdzu57+5nL0ZJvCzckJQHREybjejODT2uuoSYVQJcvazUmp+dXJJi
tM5Q6UYnfh27qobpxRlUqtBViA+bEtMbu23RK96o/GiRiIRfaRtMCmuBO0t8gyi/
k6AMLHAZmI8ugAaRiNANYqErkYLjDpS6cAVGhX/d+6fUkW8cEPekqRnLuEB6c4ZJ
fJbAhTlDTQgsnTsQ5UgkPE5CwCJ9/sw=
-----END CERTIFICATE-----
